target datalayout = "e-m:e-p270:32:32-p271:32:32-p272:64:64-i64:64-i128:128-f80:128-n8:16:32:64-S128"
target triple = "x86_64-pc-linux-gnu"

@.str.1 = private unnamed_addr constant [9 x i8] c"aclchk.c\00", align 1
@.str.98 = private unnamed_addr constant [27 x i8] c"unrecognized AclResult: %d\00", align 1
@.str.99 = private unnamed_addr constant [51 x i8] c"permission denied for column \22%s\22 of relation \22%s\22\00", align 1
@__func__.aclcheck_error_col = private unnamed_addr constant [19 x i8] c"aclcheck_error_col\00", align 1

; Function Attrs: nounwind uwtable
define dso_local void @aclcheck_error_col(i32 noundef %0, i32 noundef %1, ptr noundef %2, ptr noundef %3) #0 {
  %5 = alloca i32, align 4
  %6 = alloca i32, align 4
  %7 = alloca ptr, align 8
  %8 = alloca ptr, align 8
  store i32 %0, ptr %5, align 4
  store i32 %1, ptr %6, align 4
  store ptr %2, ptr %7, align 8
  store ptr %3, ptr %8, align 8
  %9 = load i32, ptr %5, align 4
  switch i32 %9, label %27 [
    i32 0, label %38
    i32 1, label %10
    i32 2, label %23
  ]

10:                                               ; preds = %4
  br label %11

11:                                               ; preds = %10
  br i1 true, label %12, label %14

12:                                               ; preds = %11
  %13 = call zeroext i1 @errstart_cold(i32 noundef 21, ptr noundef null) #10
  br i1 %13, label %16, label %21

14:                                               ; preds = %11
  %15 = call zeroext i1 @errstart(i32 noundef 21, ptr noundef null)
  br i1 %15, label %16, label %21

16:                                               ; preds = %14, %12
  %17 = call i32 @errcode(i32 noundef 16797828)
  %18 = load ptr, ptr %8, align 8
  %19 = load ptr, ptr %7, align 8
  %20 = call i32 (ptr, ...) @errmsg(ptr noundef @.str.99, ptr noundef %18, ptr noundef %19)
  call void @errfinish(ptr noundef @.str.1, i32 noundef 2923, ptr noundef @__func__.aclcheck_error_col)
  br label %21

21:                                               ; preds = %16, %14, %12
  unreachable

22:                                               ; No predecessors!
  br label %38

23:                                               ; preds = %4
  %24 = load i32, ptr %5, align 4
  %25 = load i32, ptr %6, align 4
  %26 = load ptr, ptr %7, align 8
  call void @aclcheck_error(i32 noundef %24, i32 noundef %25, ptr noundef %26)
  br label %38

27:                                               ; preds = %4
  br label %28

28:                                               ; preds = %27
  br i1 true, label %29, label %31

29:                                               ; preds = %28
  %30 = call zeroext i1 @errstart_cold(i32 noundef 21, ptr noundef null) #10
  br i1 %30, label %33, label %36

31:                                               ; preds = %28
  %32 = call zeroext i1 @errstart(i32 noundef 21, ptr noundef null)
  br i1 %32, label %33, label %36

33:                                               ; preds = %31, %29
  %34 = load i32, ptr %5, align 4
  %35 = call i32 (ptr, ...) @errmsg_internal(ptr noundef @.str.98, i32 noundef %34)
  call void @errfinish(ptr noundef @.str.1, i32 noundef 2930, ptr noundef @__func__.aclcheck_error_col)
  br label %36

36:                                               ; preds = %33, %31, %29
  unreachable

37:                                               ; No predecessors!
  br label %38

38:                                               ; preds = %37, %23, %22, %4
  ret void
}