; Function Attrs: nounwind uwtable
define dso_local void @aclcheck_error_col(i32 noundef %0, i32 noundef %1, ptr noundef %2, ptr noundef %3) local_unnamed_addr #0 {
  switch i32 %0, label %10 [
    i32 0, label %13
    i32 1, label %5
    i32 2, label %9
  ]

5:                                                ; preds = %4
  %6 = tail call zeroext i1 @errstart_cold(i32 noundef 21, ptr noundef null) #10
  tail call void @llvm.assume(i1 %6)
  %7 = tail call i32 @errcode(i32 noundef 16797828) #9
  %8 = tail call i32 (ptr, ...) @errmsg(ptr noundef nonnull @.str.99, ptr noundef %3, ptr noundef %2) #9
  tail call void @errfinish(ptr noundef nonnull @.str.1, i32 noundef 2923, ptr noundef nonnull @__func__.aclcheck_error_col) #9
  unreachable

9:                                                ; preds = %4
  tail call void @aclcheck_error(i32 noundef 2, i32 noundef %1, ptr noundef %2)
  br label %13

10:                                               ; preds = %4
  %11 = tail call zeroext i1 @errstart_cold(i32 noundef 21, ptr noundef null) #10
  tail call void @llvm.assume(i1 %11)
  %12 = tail call i32 (ptr, ...) @errmsg_internal(ptr noundef nonnull @.str.98, i32 noundef %0) #9
  tail call void @errfinish(ptr noundef nonnull @.str.1, i32 noundef 2930, ptr noundef nonnull @__func__.aclcheck_error_col) #9
  unreachable

13:                                               ; preds = %9, %4
  ret void
}